; Function Attrs: nounwind uwtable
define internal noundef i32 @_merge_by_type(ptr noundef %0, ptr noundef %1) #2 {
  %3 = tail call ptr @list_find_first(ptr noundef %1, ptr noundef nonnull @_get_match, ptr noundef %0) #28
  %.not = icmp eq ptr %3, null
  br i1 %.not, label %8, label %4

4:                                                ; preds = %2
  %5 = getelementptr inbounds nuw i8, ptr %3, i64 8
  %6 = load i64, ptr %5, align 8
  %7 = add i64 %6, 1
  store i64 %7, ptr %5, align 8
  br label %9

8:                                                ; preds = %2
  tail call void @list_append(ptr noundef %1, ptr noundef %0) #28
  br label %9

9:                                                ; preds = %8, %4
  ret i32 0
}